(lp0
S'poi'
p1
aS'salary'
p2
aS'bonus'
p3
aS'long_term_incentive'
p4
aS'total_payments'
p5
aS'total_stock_value'
p6
aS'deferral_payments'
p7
aS'deferred_income'
p8
aS'director_fees'
p9
aS'exercised_stock_options'
p10
aS'expenses'
p11
aS'from_messages'
p12
aS'from_poi_to_this_person'
p13
aS'from_this_person_to_poi'
p14
aS'loan_advances'
p15
ag4
aS'other'
p16
aS'restricted_stock'
p17
aS'restricted_stock_deferred'
p18
aS'shared_receipt_with_poi'
p19
aS'to_messages'
p20
a.